; Function Attrs: mustprogress uwtable
define void @_ZN7rocksdb8IOTracer9WriteIOOpERKNS_13IOTraceRecordEPNS_14IODebugContextE(ptr noundef nonnull align 8 dereferenceable(105) %0, ptr noundef nonnull readonly align 8 captures(none) dereferenceable(192) %1, ptr noundef %2) local_unnamed_addr #6 align 2 personality ptr @__gxx_personality_v0 {
  %4 = alloca %"class.rocksdb::Status", align 8
  %5 = getelementptr inbounds nuw i8, ptr %0, i64 96
  %6 = load atomic i64, ptr %5 seq_cst, align 8
  %.not = icmp eq i64 %6, 0
  br i1 %.not, label %_ZN7rocksdb21InstrumentedMutexLockD2Ev.exit, label %7

7:                                                ; preds = %3
  %8 = getelementptr inbounds nuw i8, ptr %0, i64 32
  tail call void @_ZN7rocksdb17InstrumentedMutex4LockEv(ptr noundef nonnull align 8 dereferenceable(60) %8)
  %9 = load atomic i64, ptr %5 seq_cst, align 8
  %.not4 = icmp eq i64 %9, 0
  br i1 %.not4, label %15, label %10

10:                                               ; preds = %7
  call void @llvm.lifetime.start.p0(i64 16, ptr nonnull %4) #21
  %11 = load atomic i64, ptr %5 seq_cst, align 8
  %.0.i.i6 = inttoptr i64 %11 to ptr
  invoke void @_ZN7rocksdb13IOTraceWriter9WriteIOOpERKNS_13IOTraceRecordEPNS_14IODebugContextE(ptr dead_on_unwind nonnull writable sret(%"class.rocksdb::Status") align 8 %4, ptr noundef nonnull align 8 dereferenceable(48) %.0.i.i6, ptr noundef nonnull align 8 dereferenceable(192) %1, ptr noundef %2)
          to label %12 unwind label %19

12:                                               ; preds = %10
  %13 = getelementptr inbounds nuw i8, ptr %4, i64 8
  %14 = load ptr, ptr %13, align 8, !tbaa !96
  %.not.i.i = icmp eq ptr %14, null
  br i1 %.not.i.i, label %_ZN7rocksdb6StatusD2Ev.exit, label %_ZNKSt14default_deleteIA_KcEclIS0_EENSt9enable_ifIXsr14is_convertibleIPA_T_PS1_EE5valueEvE4typeEPS5_.exit.i.i

_ZNKSt14default_deleteIA_KcEclIS0_EENSt9enable_ifIXsr14is_convertibleIPA_T_PS1_EE5valueEvE4typeEPS5_.exit.i.i: ; preds = %12
  call void @_ZdaPv(ptr noundef nonnull %14) #20
  br label %_ZN7rocksdb6StatusD2Ev.exit

_ZN7rocksdb6StatusD2Ev.exit:                      ; preds = %12, %_ZNKSt14default_deleteIA_KcEclIS0_EENSt9enable_ifIXsr14is_convertibleIPA_T_PS1_EE5valueEvE4typeEPS5_.exit.i.i
  call void @llvm.lifetime.end.p0(i64 16, ptr nonnull %4) #21
  br label %15

15:                                               ; preds = %7, %_ZN7rocksdb6StatusD2Ev.exit
  invoke void @_ZN7rocksdb4port5Mutex6UnlockEv(ptr noundef nonnull align 8 dereferenceable(60) %8)
          to label %_ZN7rocksdb21InstrumentedMutexLockD2Ev.exit unwind label %16

16:                                               ; preds = %15
  %17 = landingpad { ptr, i32 }
          catch ptr null
  %18 = extractvalue { ptr, i32 } %17, 0
  call void @__clang_call_terminate(ptr %18) #23
  unreachable

_ZN7rocksdb21InstrumentedMutexLockD2Ev.exit:      ; preds = %15, %3
  ret void

19:                                               ; preds = %10
  %20 = landingpad { ptr, i32 }
          cleanup
  call void @llvm.lifetime.end.p0(i64 16, ptr nonnull %4) #21
  invoke void @_ZN7rocksdb4port5Mutex6UnlockEv(ptr noundef nonnull align 8 dereferenceable(60) %8)
          to label %_ZN7rocksdb21InstrumentedMutexLockD2Ev.exit7 unwind label %21

21:                                               ; preds = %19
  %22 = landingpad { ptr, i32 }
          catch ptr null
  %23 = extractvalue { ptr, i32 } %22, 0
  call void @__clang_call_terminate(ptr %23) #23
  unreachable

_ZN7rocksdb21InstrumentedMutexLockD2Ev.exit7:     ; preds = %19
  resume { ptr, i32 } %20
}